target datalayout = "e-m:e-p270:32:32-p271:32:32-p272:64:64-i64:64-i128:128-f80:128-n8:16:32:64-S128"
target triple = "x86_64-unknown-linux-gnu"

%"class.rocksdb::Slice" = type { ptr, i64 }
%"class.rocksdb::Cleanable" = type { %"struct.rocksdb::Cleanable::Cleanup" }
%"struct.rocksdb::Cleanable::Cleanup" = type { ptr, ptr, ptr, ptr }
%"class.std::unique_ptr" = type { %"struct.std::__uniq_ptr_data" }
%"struct.std::__uniq_ptr_data" = type { %"class.std::__uniq_ptr_impl" }
%"class.std::__uniq_ptr_impl" = type { %"class.std::tuple" }
%"class.std::tuple" = type { %"struct.std::_Tuple_impl" }
%"struct.std::_Tuple_impl" = type { %"struct.std::_Head_base.1" }
%"struct.std::_Head_base.1" = type { ptr }
%"class.rocksdb::IterKey" = type { ptr, ptr, i64, i64, [39 x i8], i8 }
%"class.rocksdb::Status" = type { i8, i8, i8, i8, i8, i8, %"class.std::unique_ptr.2" }
%"class.std::unique_ptr.2" = type { %"struct.std::__uniq_ptr_data.3" }
%"struct.std::__uniq_ptr_data.3" = type { %"class.std::__uniq_ptr_impl.4" }
%"class.std::__uniq_ptr_impl.4" = type { %"class.std::tuple.5" }
%"class.std::tuple.5" = type { %"struct.std::_Tuple_impl.6" }
%"struct.std::_Tuple_impl.6" = type { %"struct.std::_Head_base.9" }
%"struct.std::_Head_base.9" = type { ptr }
%"class.std::__cxx11::basic_string" = type { %"struct.std::__cxx11::basic_string<char>::_Alloc_hider", i64, %union.anon }
%"struct.std::__cxx11::basic_string<char>::_Alloc_hider" = type { ptr }
%union.anon = type { i64, [8 x i8] }
%"class.rocksdb::BlockIter.13" = type { %"class.rocksdb::InternalIteratorBase.14", %"class.std::unique_ptr", ptr, i32, i32, i32, i32, %"class.rocksdb::IterKey", %"class.rocksdb::IterKey", %"class.rocksdb::Slice", %"class.rocksdb::Status", %"class.rocksdb::Slice", i64, i64, i8, ptr, i32, i32, i8, i8, i8, ptr }
%"class.rocksdb::InternalIteratorBase.14" = type { ptr, %"class.rocksdb::Cleanable" }
%"class.rocksdb::IndexBlockIter" = type { %"class.rocksdb::BlockIter.13", i8, i8, ptr, %"struct.rocksdb::IndexValue", %"class.std::unique_ptr.15", %"class.std::__cxx11::basic_string" }
%"struct.rocksdb::IndexValue" = type { %"class.rocksdb::BlockHandle", %"class.rocksdb::Slice" }
%"class.rocksdb::BlockHandle" = type { i64, i64 }
%"class.std::unique_ptr.15" = type { %"struct.std::__uniq_ptr_data.16" }
%"struct.std::__uniq_ptr_data.16" = type { %"class.std::__uniq_ptr_impl.17" }
%"class.std::__uniq_ptr_impl.17" = type { %"class.std::tuple.18" }
%"class.std::tuple.18" = type { %"struct.std::_Tuple_impl.19" }
%"struct.std::_Tuple_impl.19" = type { %"struct.std::_Head_base.22" }
%"struct.std::_Head_base.22" = type { ptr }

; Function Attrs: mustprogress nounwind uwtable
define linkonce_odr void @_ZN7rocksdb5SliceC2EPKcm(ptr noundef nonnull align 8 dereferenceable(16) %this, ptr noundef %d, i64 noundef %n) unnamed_addr #1 comdat align 2 {
entry:
  %this.addr = alloca ptr, align 8
  %d.addr = alloca ptr, align 8
  %n.addr = alloca i64, align 8
  store ptr %this, ptr %this.addr, align 8
  store ptr %d, ptr %d.addr, align 8
  store i64 %n, ptr %n.addr, align 8
  %this1 = load ptr, ptr %this.addr, align 8
  %data_ = getelementptr inbounds %"class.rocksdb::Slice", ptr %this1, i32 0, i32 0
  %0 = load ptr, ptr %d.addr, align 8
  store ptr %0, ptr %data_, align 8
  %size_ = getelementptr inbounds %"class.rocksdb::Slice", ptr %this1, i32 0, i32 1
  %1 = load i64, ptr %n.addr, align 8
  store i64 %1, ptr %size_, align 8
  ret void
}

; Function Attrs: mustprogress nounwind uwtable
define linkonce_odr noundef i64 @_ZNK7rocksdb5Slice4sizeEv(ptr noundef nonnull align 8 dereferenceable(16) %this) #1 comdat align 2 {
entry:
  %this.addr = alloca ptr, align 8
  store ptr %this, ptr %this.addr, align 8
  %this1 = load ptr, ptr %this.addr, align 8
  %size_ = getelementptr inbounds %"class.rocksdb::Slice", ptr %this1, i32 0, i32 1
  %0 = load i64, ptr %size_, align 8
  ret i64 %0
}

; Function Attrs: mustprogress nounwind uwtable
define linkonce_odr noundef ptr @_ZNK7rocksdb5Slice4dataEv(ptr noundef nonnull align 8 dereferenceable(16) %this) #1 comdat align 2 {
entry:
  %this.addr = alloca ptr, align 8
  store ptr %this, ptr %this.addr, align 8
  %this1 = load ptr, ptr %this.addr, align 8
  %data_ = getelementptr inbounds %"class.rocksdb::Slice", ptr %this1, i32 0, i32 0
  %0 = load ptr, ptr %data_, align 8
  ret ptr %0
}

; Function Attrs: mustprogress uwtable
define linkonce_odr { ptr, i64 } @_ZN7rocksdb14ExtractUserKeyERKNS_5SliceE(ptr noundef nonnull align 8 dereferenceable(16) %internal_key) #0 comdat {
entry:
  %retval = alloca %"class.rocksdb::Slice", align 8
  %internal_key.addr = alloca ptr, align 8
  store ptr %internal_key, ptr %internal_key.addr, align 8
  %0 = load ptr, ptr %internal_key.addr, align 8
  %call = call noundef ptr @_ZNK7rocksdb5Slice4dataEv(ptr noundef nonnull align 8 dereferenceable(16) %0)
  %1 = load ptr, ptr %internal_key.addr, align 8
  %call1 = call noundef i64 @_ZNK7rocksdb5Slice4sizeEv(ptr noundef nonnull align 8 dereferenceable(16) %1)
  %sub = sub i64 %call1, 8
  call void @_ZN7rocksdb5SliceC2EPKcm(ptr noundef nonnull align 8 dereferenceable(16) %retval, ptr noundef %call, i64 noundef %sub)
  %2 = load { ptr, i64 }, ptr %retval, align 8
  ret { ptr, i64 } %2
}

; Function Attrs: mustprogress nounwind uwtable
define linkonce_odr noundef zeroext i1 @_ZNK7rocksdb7IterKey9IsUserKeyEv(ptr noundef nonnull align 8 dereferenceable(72) %this) #1 comdat align 2 {
entry:
  %this.addr = alloca ptr, align 8
  store ptr %this, ptr %this.addr, align 8
  %this1 = load ptr, ptr %this.addr, align 8
  %is_user_key_ = getelementptr inbounds %"class.rocksdb::IterKey", ptr %this1, i32 0, i32 5
  %0 = load i8, ptr %is_user_key_, align 1
  %tobool = trunc i8 %0 to i1
  ret i1 %tobool
}

; Function Attrs: mustprogress uwtable
define noundef zeroext i1 @_ZN7rocksdb14IndexBlockIter10PrefixSeekERKNS_5SliceEPjPb(ptr noundef nonnull align 8 dereferenceable(408) %this, ptr noundef nonnull align 8 dereferenceable(16) %target, ptr noundef %index, ptr noundef %prefix_may_exist) #0 align 2 {
entry:
  %retval = alloca i1, align 1
  %this.addr = alloca ptr, align 8
  %target.addr = alloca ptr, align 8
  %index.addr = alloca ptr, align 8
  %prefix_may_exist.addr = alloca ptr, align 8
  %seek_key = alloca %"class.rocksdb::Slice", align 8
  %ref.tmp = alloca %"class.rocksdb::Slice", align 8
  %block_ids = alloca ptr, align 8
  %num_blocks = alloca i32, align 4
  store ptr %this, ptr %this.addr, align 8
  store ptr %target, ptr %target.addr, align 8
  store ptr %index, ptr %index.addr, align 8
  store ptr %prefix_may_exist, ptr %prefix_may_exist.addr, align 8
  %this1 = load ptr, ptr %this.addr, align 8
  %0 = load ptr, ptr %prefix_may_exist.addr, align 8
  store i8 1, ptr %0, align 1
  %1 = load ptr, ptr %target.addr, align 8
  call void @llvm.memcpy.p0.p0.i64(ptr align 8 %seek_key, ptr align 8 %1, i64 16, i1 false)
  %raw_key_ = getelementptr inbounds %"class.rocksdb::BlockIter.13", ptr %this1, i32 0, i32 7
  %call = call noundef zeroext i1 @_ZNK7rocksdb7IterKey9IsUserKeyEv(ptr noundef nonnull align 8 dereferenceable(72) %raw_key_)
  br i1 %call, label %if.then, label %if.end

if.then:                                          ; preds = %entry
  %2 = load ptr, ptr %target.addr, align 8
  %call2 = call { ptr, i64 } @_ZN7rocksdb14ExtractUserKeyERKNS_5SliceE(ptr noundef nonnull align 8 dereferenceable(16) %2)
  %3 = getelementptr inbounds { ptr, i64 }, ptr %ref.tmp, i32 0, i32 0
  %4 = extractvalue { ptr, i64 } %call2, 0
  store ptr %4, ptr %3, align 8
  %5 = getelementptr inbounds { ptr, i64 }, ptr %ref.tmp, i32 0, i32 1
  %6 = extractvalue { ptr, i64 } %call2, 1
  store i64 %6, ptr %5, align 8
  call void @llvm.memcpy.p0.p0.i64(ptr align 8 %seek_key, ptr align 8 %ref.tmp, i64 16, i1 false)
  br label %if.end

if.end:                                           ; preds = %if.then, %entry
  store ptr null, ptr %block_ids, align 8
  %prefix_index_ = getelementptr inbounds %"class.rocksdb::IndexBlockIter", ptr %this1, i32 0, i32 3
  %7 = load ptr, ptr %prefix_index_, align 8
  %8 = load ptr, ptr %target.addr, align 8
  %call3 = call noundef i32 @_ZN7rocksdb16BlockPrefixIndex9GetBlocksERKNS_5SliceEPPj(ptr noundef nonnull align 8 dereferenceable(64) %7, ptr noundef nonnull align 8 dereferenceable(16) %8, ptr noundef %block_ids)
  store i32 %call3, ptr %num_blocks, align 4
  %9 = load i32, ptr %num_blocks, align 4
  %cmp = icmp eq i32 %9, 0
  br i1 %cmp, label %if.then4, label %if.else

if.then4:                                         ; preds = %if.end
  %restarts_ = getelementptr inbounds %"class.rocksdb::BlockIter.13", ptr %this1, i32 0, i32 5
  %10 = load i32, ptr %restarts_, align 8
  %current_ = getelementptr inbounds %"class.rocksdb::BlockIter.13", ptr %this1, i32 0, i32 6
  store i32 %10, ptr %current_, align 4
  %11 = load ptr, ptr %prefix_may_exist.addr, align 8
  store i8 0, ptr %11, align 1
  store i1 false, ptr %retval, align 1
  br label %return

if.else:                                          ; preds = %if.end
  %12 = load ptr, ptr %block_ids, align 8
  %13 = load i32, ptr %num_blocks, align 4
  %sub = sub i32 %13, 1
  %14 = load ptr, ptr %index.addr, align 8
  %15 = load ptr, ptr %prefix_may_exist.addr, align 8
  %call5 = call noundef zeroext i1 @_ZN7rocksdb14IndexBlockIter20BinaryBlockIndexSeekERKNS_5SliceEPjjjS4_Pb(ptr noundef nonnull align 8 dereferenceable(408) %this1, ptr noundef nonnull align 8 dereferenceable(16) %seek_key, ptr noundef %12, i32 noundef 0, i32 noundef %sub, ptr noundef %14, ptr noundef %15)
  store i1 %call5, ptr %retval, align 1
  br label %return

return:                                           ; preds = %if.else, %if.then4
  %16 = load i1, ptr %retval, align 1
  ret i1 %16
}