; Function Attrs: mustprogress uwtable
define noundef zeroext i1 @_ZN7rocksdb14IndexBlockIter10PrefixSeekERKNS_5SliceEPjPb(ptr noundef nonnull align 8 dereferenceable(408) %this, ptr noundef nonnull align 8 dereferenceable(16) %target, ptr nocapture noundef writeonly %index, ptr nocapture noundef writeonly %prefix_may_exist) local_unnamed_addr #1 align 2 {
entry:
  %seek_key = alloca %"class.rocksdb::Slice", align 8
  %block_ids = alloca ptr, align 8
  store i8 1, ptr %prefix_may_exist, align 1
  call void @llvm.memcpy.p0.p0.i64(ptr noundef nonnull align 8 dereferenceable(16) %seek_key, ptr noundef nonnull align 8 dereferenceable(16) %target, i64 16, i1 false)
  %is_user_key_.i = getelementptr inbounds i8, ptr %this, i64 143
  %0 = load i8, ptr %is_user_key_.i, align 1
  %1 = and i8 %0, 1
  %tobool.i.not = icmp eq i8 %1, 0
  br i1 %tobool.i.not, label %if.end, label %if.then

if.then:                                          ; preds = %entry
  %2 = load ptr, ptr %target, align 8
  %size_.i.i = getelementptr inbounds i8, ptr %target, i64 8
  %3 = load i64, ptr %size_.i.i, align 8
  %sub.i = add i64 %3, -8
  store ptr %2, ptr %seek_key, align 8
  %ref.tmp.sroa.2.0.seek_key.sroa_idx = getelementptr inbounds i8, ptr %seek_key, i64 8
  store i64 %sub.i, ptr %ref.tmp.sroa.2.0.seek_key.sroa_idx, align 8
  br label %if.end

if.end:                                           ; preds = %if.then, %entry
  store ptr null, ptr %block_ids, align 8
  %prefix_index_ = getelementptr inbounds i8, ptr %this, i64 328
  %4 = load ptr, ptr %prefix_index_, align 8
  %call3 = call noundef i32 @_ZN7rocksdb16BlockPrefixIndex9GetBlocksERKNS_5SliceEPPj(ptr noundef nonnull align 8 dereferenceable(64) %4, ptr noundef nonnull align 8 dereferenceable(16) %target, ptr noundef nonnull %block_ids)
  %cmp = icmp eq i32 %call3, 0
  br i1 %cmp, label %if.then4, label %if.else

if.then4:                                         ; preds = %if.end
  %restarts_ = getelementptr inbounds i8, ptr %this, i64 64
  %5 = load i32, ptr %restarts_, align 8
  %current_ = getelementptr inbounds i8, ptr %this, i64 68
  store i32 %5, ptr %current_, align 4
  store i8 0, ptr %prefix_may_exist, align 1
  br label %return

if.else:                                          ; preds = %if.end
  %6 = load ptr, ptr %block_ids, align 8
  %sub = add i32 %call3, -1
  %call5 = call noundef zeroext i1 @_ZN7rocksdb14IndexBlockIter20BinaryBlockIndexSeekERKNS_5SliceEPjjjS4_Pb(ptr noundef nonnull align 8 dereferenceable(408) %this, ptr noundef nonnull align 8 dereferenceable(16) %seek_key, ptr noundef %6, i32 noundef 0, i32 noundef %sub, ptr noundef %index, ptr noundef nonnull %prefix_may_exist)
  br label %return

return:                                           ; preds = %if.else, %if.then4
  %retval.0 = phi i1 [ false, %if.then4 ], [ %call5, %if.else ]
  ret i1 %retval.0
}